; Function Attrs: mustprogress nofree norecurse nosync nounwind willreturn memory(none) uwtable
define noundef i32 @_ZN3vcg6mean4wEihihihih(i32 noundef %0, i8 noundef zeroext %1, i32 noundef %2, i8 noundef zeroext %3, i32 noundef %4, i8 noundef zeroext %5, i32 noundef %6, i8 noundef zeroext %7) local_unnamed_addr #12 {
  %9 = zext i8 %1 to i32
  %10 = mul nsw i32 %9, %0
  %11 = zext i8 %3 to i32
  %12 = mul nsw i32 %11, %2
  %13 = add nsw i32 %12, %10
  %14 = zext i8 %5 to i32
  %15 = mul nsw i32 %14, %4
  %16 = add nsw i32 %13, %15
  %17 = zext i8 %7 to i32
  %18 = mul nsw i32 %17, %6
  %19 = add nsw i32 %16, %18
  %20 = add nuw nsw i32 %11, %9
  %21 = add nuw nsw i32 %20, %14
  %22 = add nuw nsw i32 %21, %17
  %23 = sdiv i32 %19, %22
  ret i32 %23
}